; Function Attrs: nounwind uwtable
define i32 @OBJ_sn2nid(ptr noundef %0) local_unnamed_addr #0 {
  %2 = alloca %struct.asn1_object_st, align 8
  %3 = alloca ptr, align 8
  %4 = alloca %struct.added_obj_st, align 8
  call void @llvm.lifetime.start.p0(i64 40, ptr nonnull %2) #10
  call void @llvm.lifetime.start.p0(i64 8, ptr nonnull %3) #10
  store ptr %2, ptr %3, align 8, !tbaa !22
  call void @llvm.lifetime.start.p0(i64 16, ptr nonnull %4) #10
  store ptr %0, ptr %2, align 8, !tbaa !18
  %5 = call ptr @ossl_bsearch(ptr noundef nonnull %3, ptr noundef nonnull @sn_objs, i32 noundef 1478, i32 noundef 4, ptr noundef nonnull @sn_cmp_BSEARCH_CMP_FN, i32 noundef 0) #10
  %.not = icmp eq ptr %5, null
  br i1 %.not, label %11, label %6

6:                                                ; preds = %1
  %7 = load i32, ptr %5, align 4, !tbaa !23
  %8 = zext i32 %7 to i64
  %9 = getelementptr inbounds nuw [1487 x %struct.asn1_object_st], ptr @nid_objs, i64 0, i64 %8, i32 2
  %10 = load i32, ptr %9, align 8, !tbaa !13
  br label %30

11:                                               ; preds = %1
  %12 = call i32 @OPENSSL_init_crypto(i64 noundef 64, ptr noundef null) #10
  %13 = call i32 @CRYPTO_THREAD_run_once(ptr noundef nonnull @ossl_obj_lock_init, ptr noundef nonnull @obj_lock_initialise_ossl_) #10
  %.not.i.i = icmp eq i32 %13, 0
  %14 = load i32, ptr @obj_lock_initialise_ossl_ret_, align 4
  %.not23.i = icmp eq i32 %14, 0
  %.not2.i = select i1 %.not.i.i, i1 true, i1 %.not23.i
  br i1 %.not2.i, label %ossl_obj_read_lock.exit.thread, label %ossl_obj_read_lock.exit

ossl_obj_read_lock.exit:                          ; preds = %11
  %15 = load ptr, ptr @ossl_obj_lock, align 8, !tbaa !8
  %16 = call i32 @CRYPTO_THREAD_read_lock(ptr noundef %15) #10
  %.not9 = icmp eq i32 %16, 0
  br i1 %.not9, label %ossl_obj_read_lock.exit.thread, label %17

ossl_obj_read_lock.exit.thread:                   ; preds = %11, %ossl_obj_read_lock.exit
  call void @ERR_new() #10
  call void @ERR_set_debug(ptr noundef nonnull @.str, i32 noundef 676, ptr noundef nonnull @__func__.OBJ_sn2nid) #10
  call void (i32, i32, ptr, ...) @ERR_set_error(i32 noundef 8, i32 noundef 786703, ptr noundef null) #10
  br label %30

17:                                               ; preds = %ossl_obj_read_lock.exit
  %18 = load ptr, ptr @added, align 8, !tbaa !3
  %.not10 = icmp eq ptr %18, null
  br i1 %.not10, label %27, label %19

19:                                               ; preds = %17
  store i32 1, ptr %4, align 8, !tbaa !17
  %20 = getelementptr inbounds nuw i8, ptr %4, i64 8
  store ptr %2, ptr %20, align 8, !tbaa !9
  %21 = call ptr @OPENSSL_LH_retrieve(ptr noundef nonnull %18, ptr noundef nonnull %4) #10
  %.not11 = icmp eq ptr %21, null
  br i1 %.not11, label %27, label %22

22:                                               ; preds = %19
  %23 = getelementptr inbounds nuw i8, ptr %21, i64 8
  %24 = load ptr, ptr %23, align 8, !tbaa !9
  %25 = getelementptr inbounds nuw i8, ptr %24, i64 16
  %26 = load i32, ptr %25, align 8, !tbaa !13
  br label %27

27:                                               ; preds = %19, %22, %17
  %.0 = phi i32 [ %26, %22 ], [ 0, %19 ], [ 0, %17 ]
  %28 = load ptr, ptr @ossl_obj_lock, align 8, !tbaa !8
  %29 = call i32 @CRYPTO_THREAD_unlock(ptr noundef %28) #10
  br label %30

30:                                               ; preds = %27, %ossl_obj_read_lock.exit.thread, %6
  %.06 = phi i32 [ %10, %6 ], [ %.0, %27 ], [ 0, %ossl_obj_read_lock.exit.thread ]
  call void @llvm.lifetime.end.p0(i64 16, ptr nonnull %4) #10
  call void @llvm.lifetime.end.p0(i64 8, ptr nonnull %3) #10
  call void @llvm.lifetime.end.p0(i64 40, ptr nonnull %2) #10
  ret i32 %.06
}